	.text
	.syntax unified
	.eabi_attribute	67, "2.09"	@ Tag_conformance
	.cpu	cortex-a8
	.eabi_attribute	6, 10	@ Tag_CPU_arch
	.eabi_attribute	7, 65	@ Tag_CPU_arch_profile
	.eabi_attribute	8, 1	@ Tag_ARM_ISA_use
	.eabi_attribute	9, 2	@ Tag_THUMB_ISA_use
	.fpu	neon
	.eabi_attribute	17, 1	@ Tag_ABI_PCS_GOT_use
	.eabi_attribute	20, 2	@ Tag_ABI_FP_denormal
	.eabi_attribute	23, 1	@ Tag_ABI_FP_number_model
	.eabi_attribute	34, 1	@ Tag_CPU_unaligned_access
	.eabi_attribute	24, 1	@ Tag_ABI_align_needed
	.eabi_attribute	25, 1	@ Tag_ABI_align_preserved
	.eabi_attribute	28, 1	@ Tag_ABI_VFP_args
	.eabi_attribute	38, 1	@ Tag_ABI_FP_16bit_format
	.eabi_attribute	18, 4	@ Tag_ABI_PCS_wchar_t
	.eabi_attribute	26, 2	@ Tag_ABI_enum_size
	.eabi_attribute	14, 0	@ Tag_ABI_PCS_R9_use
	.eabi_attribute	68, 1	@ Tag_Virtualization_use
	.file	"/root/Bela/projects/MagicBox/build/mbProgram.bc"
	.file	1 "/usr/bin/../lib/gcc/arm-linux-gnueabihf/6.3.0/../../../../include/arm-linux-gnueabihf/c++/6.3.0/bits" "c++config.h"
	.file	2 "/usr/bin/../lib/gcc/arm-linux-gnueabihf/6.3.0/../../../../include/arm-linux-gnueabihf/c++/6.3.0/bits" "atomic_word.h"
	.file	3 "/usr/bin/../lib/gcc/arm-linux-gnueabihf/6.3.0/../../../../include/c++/6.3.0/bits" "ios_base.h"
	.file	4 "/usr/bin/../lib/gcc/arm-linux-gnueabihf/6.3.0/../../../../include/c++/6.3.0" "iostream"
	.file	5 "/usr/bin/../lib/gcc/arm-linux-gnueabihf/6.3.0/../../../../include/c++/6.3.0/ext" "concurrence.h"
	.file	6 "/usr/include/arm-linux-gnueabihf/bits" "math-finite.h"
	.file	7 "/usr/include/arm-linux-gnueabihf/bits" "mathcalls.h"
	.file	8 "/usr/include/arm-linux-gnueabihf/bits" "mathdef.h"
	.file	9 "/usr/bin/../lib/gcc/arm-linux-gnueabihf/6.3.0/../../../../include/c++/6.3.0/debug" "debug.h"
	.file	10 "/usr/bin/../lib/gcc/arm-linux-gnueabihf/6.3.0/../../../../include/c++/6.3.0/bits" "exception_ptr.h"
	.file	11 "/usr/include" "wchar.h"
	.file	12 "/usr/lib/llvm-3.9/bin/../lib/clang/3.9.1/include" "stddef.h"
	.file	13 "/usr/include" "libio.h"
	.file	14 "/usr/include/arm-linux-gnueabihf/bits" "types.h"
	.file	15 "/usr/include" "stdio.h"
	.file	16 "/usr/lib/llvm-3.9/bin/../lib/clang/3.9.1/include" "stdarg.h"
	.file	17 "/usr/include" "stdint.h"
	.file	18 "/usr/include" "locale.h"
	.file	19 "/usr/include" "ctype.h"
	.file	20 "/usr/include" "stdlib.h"
	.file	21 "/usr/include/arm-linux-gnueabihf/bits" "stdlib-float.h"
	.file	22 "/usr/include/arm-linux-gnueabihf/bits" "stdlib-bsearch.h"
	.file	23 "/usr/bin/../lib/gcc/arm-linux-gnueabihf/6.3.0/../../../../include/c++/6.3.0" "cstdlib"
	.file	24 "/usr/include" "_G_config.h"
	.file	25 "/usr/include/arm-linux-gnueabihf/bits" "stdio.h"
	.file	26 "/usr/include" "wctype.h"
	.section	.text.startup,"ax",%progbits
	.p2align	2
	.type	_GLOBAL__sub_I_mbProgram.ii,%function
_GLOBAL__sub_I_mbProgram.ii:            @ @_GLOBAL__sub_I_mbProgram.ii
.Lfunc_begin0:
	.file	27 "/root/Bela/projects/MagicBox/build" "mbProgram.cpp"
	.loc	27 0 0                  @ /root/Bela/projects/MagicBox/build/mbProgram.cpp:0:0
	.fnstart
	.cfi_startproc
@ BB#0:
	.save	{r4, r10, r11, lr}
	push	{r4, r10, r11, lr}
.Ltmp0:
	.cfi_def_cfa_offset 16
.Ltmp1:
	.cfi_offset lr, -4
.Ltmp2:
	.cfi_offset r11, -8
.Ltmp3:
	.cfi_offset r10, -12
.Ltmp4:
	.cfi_offset r4, -16
	.setfp	r11, sp, #8
	add	r11, sp, #8
.Ltmp5:
	.cfi_def_cfa r11, 8
.Ltmp6:
	.loc	4 74 25 prologue_end    @ /usr/bin/../lib/gcc/arm-linux-gnueabihf/6.3.0/../../../../include/c++/6.3.0/iostream:74:25
	movw	r4, :lower16:_ZStL8__ioinit
	movt	r4, :upper16:_ZStL8__ioinit
	mov	r0, r4
	bl	_ZNSt8ios_base4InitC1Ev
	.loc	4 74 25 is_stmt 0 discriminator 1 @ /usr/bin/../lib/gcc/arm-linux-gnueabihf/6.3.0/../../../../include/c++/6.3.0/iostream:74:25
	movw	r0, :lower16:_ZNSt8ios_base4InitD1Ev
	movw	r2, :lower16:__dso_handle
	movt	r0, :upper16:_ZNSt8ios_base4InitD1Ev
	movt	r2, :upper16:__dso_handle
	mov	r1, r4
	pop	{r4, r10, r11, lr}
	b	__cxa_atexit
.Ltmp7:
.Lfunc_end0:
	.size	_GLOBAL__sub_I_mbProgram.ii, .Lfunc_end0-_GLOBAL__sub_I_mbProgram.ii
	.cfi_endproc
	.fnend

	.type	_ZStL8__ioinit,%object  @ @_ZStL8__ioinit
	.local	_ZStL8__ioinit
	.comm	_ZStL8__ioinit,1,1
	.section	.init_array,"aw",%init_array
	.p2align	2
	.long	_GLOBAL__sub_I_mbProgram.ii(target1)
	.section	".note.GNU-stack","",%progbits
	.eabi_attribute	30, 2	@ Tag_ABI_optimization_goals